; Function Attrs: nofree nounwind memory(readwrite, inaccessiblemem: none) uwtable
define noundef ptr @php_replace_controlchars(ptr noundef returned %0) local_unnamed_addr #4 {
  %2 = tail call i64 @strlen(ptr noundef nonnull dereferenceable(1) %0) #18
  %3 = getelementptr inbounds i8, ptr %0, i64 %2
  %.not.i = icmp ne ptr %0, null
  %4 = icmp sgt i64 %2, 0
  %or.cond.i = and i1 %.not.i, %4
  br i1 %or.cond.i, label %.lr.ph.i, label %php_replace_controlchars_ex.exit

.lr.ph.i:                                         ; preds = %1
  %5 = tail call ptr @__ctype_b_loc() #17
  br label %6

6:                                                ; preds = %14, %.lr.ph.i
  %.01013.i = phi ptr [ %0, %.lr.ph.i ], [ %15, %14 ]
  %7 = load ptr, ptr %5, align 8
  %8 = load i8, ptr %.01013.i, align 1
  %9 = zext i8 %8 to i64
  %10 = getelementptr inbounds i16, ptr %7, i64 %9
  %11 = load i16, ptr %10, align 2
  %12 = and i16 %11, 2
  %.not12.i = icmp eq i16 %12, 0
  br i1 %.not12.i, label %14, label %13

13:                                               ; preds = %6
  store i8 95, ptr %.01013.i, align 1
  br label %14

14:                                               ; preds = %13, %6
  %15 = getelementptr inbounds i8, ptr %.01013.i, i64 1
  %16 = icmp ult ptr %15, %3
  br i1 %16, label %6, label %php_replace_controlchars_ex.exit

php_replace_controlchars_ex.exit:                 ; preds = %14, %1
  ret ptr %0
}